target datalayout = "e-m:e-p270:32:32-p271:32:32-p272:64:64-i64:64-i128:128-f80:128-n8:16:32:64-S128"
target triple = "x86_64-pc-linux-gnu"

@.str.66 = private unnamed_addr constant [6 x i8] c"block\00", align 1
@.str.84 = private unnamed_addr constant [5 x i8] c"eval\00", align 1
@.str.121 = private unnamed_addr constant [4 x i8] c"top\00", align 1
@.str.123 = private unnamed_addr constant [7 x i8] c"method\00", align 1
@.str.126 = private unnamed_addr constant [6 x i8] c"class\00", align 1
@.str.128 = private unnamed_addr constant [7 x i8] c"rescue\00", align 1
@.str.130 = private unnamed_addr constant [7 x i8] c"ensure\00", align 1
@.str.133 = private unnamed_addr constant [5 x i8] c"main\00", align 1
@.str.135 = private unnamed_addr constant [6 x i8] c"plain\00", align 1
@iseq_type_id.id_top = internal global i64 0, align 8
@iseq_type_id.id_method = internal global i64 0, align 8
@iseq_type_id.id_block = internal global i64 0, align 8
@iseq_type_id.id_class = internal global i64 0, align 8
@iseq_type_id.id_rescue = internal global i64 0, align 8
@iseq_type_id.id_ensure = internal global i64 0, align 8
@iseq_type_id.id_eval = internal global i64 0, align 8
@iseq_type_id.id_main = internal global i64 0, align 8
@iseq_type_id.id_plain = internal global i64 0, align 8
@iseq_type_id.rbimpl_id = internal global i64 0, align 8
@iseq_type_id.rbimpl_id.192 = internal global i64 0, align 8
@iseq_type_id.rbimpl_id.193 = internal global i64 0, align 8
@iseq_type_id.rbimpl_id.194 = internal global i64 0, align 8
@iseq_type_id.rbimpl_id.195 = internal global i64 0, align 8
@iseq_type_id.rbimpl_id.196 = internal global i64 0, align 8
@iseq_type_id.rbimpl_id.197 = internal global i64 0, align 8
@iseq_type_id.rbimpl_id.198 = internal global i64 0, align 8
@iseq_type_id.rbimpl_id.199 = internal global i64 0, align 8
@.str.200 = private unnamed_addr constant [26 x i8] c"unsupported iseq type: %d\00", align 1

; Function Attrs: inlinehint nounwind sspstrong willreturn memory(read) uwtable
define internal i64 @rb_intern_const(ptr noundef nonnull %0) #3 {
  %2 = alloca ptr, align 8
  %3 = alloca i64, align 8
  store ptr %0, ptr %2, align 8, !tbaa !137
  call void @llvm.lifetime.start.p0(i64 8, ptr %3) #24
  %4 = load ptr, ptr %2, align 8, !tbaa !137
  %5 = call i64 @strlen(ptr noundef %4) #25
  store i64 %5, ptr %3, align 8, !tbaa !17
  %6 = load ptr, ptr %2, align 8, !tbaa !137
  %7 = load i64, ptr %3, align 8, !tbaa !17
  %8 = call i64 @rb_intern2(ptr noundef %6, i64 noundef %7)
  call void @llvm.lifetime.end.p0(i64 8, ptr %3) #24
  ret i64 %8
}

; Function Attrs: inlinehint nounwind sspstrong memory(argmem: readwrite, inaccessiblemem: readwrite) uwtable
define internal i64 @rbimpl_intern_const(ptr noundef nonnull %0, ptr noundef nonnull %1) #9 {
  %3 = alloca ptr, align 8
  %4 = alloca ptr, align 8
  store ptr %0, ptr %3, align 8, !tbaa !66
  store ptr %1, ptr %4, align 8, !tbaa !137
  br label %5

5:                                                ; preds = %10, %2
  %6 = load ptr, ptr %3, align 8, !tbaa !66
  %7 = load i64, ptr %6, align 8, !tbaa !17
  %8 = icmp ne i64 %7, 0
  %9 = xor i1 %8, true
  br i1 %9, label %10, label %14

10:                                               ; preds = %5
  %11 = load ptr, ptr %4, align 8, !tbaa !137
  %12 = call i64 @rb_intern_const(ptr noundef %11) #25
  %13 = load ptr, ptr %3, align 8, !tbaa !66
  store i64 %12, ptr %13, align 8, !tbaa !17
  br label %5, !llvm.loop !256

14:                                               ; preds = %5
  %15 = load ptr, ptr %3, align 8, !tbaa !66
  %16 = load i64, ptr %15, align 8, !tbaa !17
  ret i64 %16
}

; Function Attrs: nounwind sspstrong uwtable
define internal i64 @iseq_type_id(i32 noundef %0) #0 {
  %2 = alloca i64, align 8
  %3 = alloca i32, align 4
  %4 = alloca i64, align 8
  %5 = alloca i64, align 8
  %6 = alloca i64, align 8
  %7 = alloca i64, align 8
  %8 = alloca i64, align 8
  %9 = alloca i64, align 8
  %10 = alloca i64, align 8
  %11 = alloca i64, align 8
  %12 = alloca i64, align 8
  store i32 %0, ptr %3, align 4, !tbaa !56
  %13 = load i64, ptr @iseq_type_id.id_top, align 8, !tbaa !17
  %14 = icmp eq i64 %13, 0
  br i1 %14, label %15, label %34

15:                                               ; preds = %1
  %16 = call i64 @rbimpl_intern_const(ptr noundef @iseq_type_id.rbimpl_id, ptr noundef @.str.121) #29
  store i64 %16, ptr %4, align 8, !tbaa !17
  %17 = load i64, ptr %4, align 8, !tbaa !17
  store i64 %17, ptr @iseq_type_id.id_top, align 8, !tbaa !17
  %18 = call i64 @rbimpl_intern_const(ptr noundef @iseq_type_id.rbimpl_id.192, ptr noundef @.str.123) #29
  store i64 %18, ptr %5, align 8, !tbaa !17
  %19 = load i64, ptr %5, align 8, !tbaa !17
  store i64 %19, ptr @iseq_type_id.id_method, align 8, !tbaa !17
  %20 = call i64 @rbimpl_intern_const(ptr noundef @iseq_type_id.rbimpl_id.193, ptr noundef @.str.66) #29
  store i64 %20, ptr %6, align 8, !tbaa !17
  %21 = load i64, ptr %6, align 8, !tbaa !17
  store i64 %21, ptr @iseq_type_id.id_block, align 8, !tbaa !17
  %22 = call i64 @rbimpl_intern_const(ptr noundef @iseq_type_id.rbimpl_id.194, ptr noundef @.str.126) #29
  store i64 %22, ptr %7, align 8, !tbaa !17
  %23 = load i64, ptr %7, align 8, !tbaa !17
  store i64 %23, ptr @iseq_type_id.id_class, align 8, !tbaa !17
  %24 = call i64 @rbimpl_intern_const(ptr noundef @iseq_type_id.rbimpl_id.195, ptr noundef @.str.128) #29
  store i64 %24, ptr %8, align 8, !tbaa !17
  %25 = load i64, ptr %8, align 8, !tbaa !17
  store i64 %25, ptr @iseq_type_id.id_rescue, align 8, !tbaa !17
  %26 = call i64 @rbimpl_intern_const(ptr noundef @iseq_type_id.rbimpl_id.196, ptr noundef @.str.130) #29
  store i64 %26, ptr %9, align 8, !tbaa !17
  %27 = load i64, ptr %9, align 8, !tbaa !17
  store i64 %27, ptr @iseq_type_id.id_ensure, align 8, !tbaa !17
  %28 = call i64 @rbimpl_intern_const(ptr noundef @iseq_type_id.rbimpl_id.197, ptr noundef @.str.84) #29
  store i64 %28, ptr %10, align 8, !tbaa !17
  %29 = load i64, ptr %10, align 8, !tbaa !17
  store i64 %29, ptr @iseq_type_id.id_eval, align 8, !tbaa !17
  %30 = call i64 @rbimpl_intern_const(ptr noundef @iseq_type_id.rbimpl_id.198, ptr noundef @.str.133) #29
  store i64 %30, ptr %11, align 8, !tbaa !17
  %31 = load i64, ptr %11, align 8, !tbaa !17
  store i64 %31, ptr @iseq_type_id.id_main, align 8, !tbaa !17
  %32 = call i64 @rbimpl_intern_const(ptr noundef @iseq_type_id.rbimpl_id.199, ptr noundef @.str.135) #29
  store i64 %32, ptr %12, align 8, !tbaa !17
  %33 = load i64, ptr %12, align 8, !tbaa !17
  store i64 %33, ptr @iseq_type_id.id_plain, align 8, !tbaa !17
  br label %34

34:                                               ; preds = %15, %1
  %35 = load i32, ptr %3, align 4, !tbaa !56
  switch i32 %35, label %54 [
    i32 0, label %36
    i32 1, label %38
    i32 2, label %40
    i32 3, label %42
    i32 4, label %44
    i32 5, label %46
    i32 6, label %48
    i32 7, label %50
    i32 8, label %52
  ]

36:                                               ; preds = %34
  %37 = load i64, ptr @iseq_type_id.id_top, align 8, !tbaa !17
  store i64 %37, ptr %2, align 8
  br label %56

38:                                               ; preds = %34
  %39 = load i64, ptr @iseq_type_id.id_method, align 8, !tbaa !17
  store i64 %39, ptr %2, align 8
  br label %56

40:                                               ; preds = %34
  %41 = load i64, ptr @iseq_type_id.id_block, align 8, !tbaa !17
  store i64 %41, ptr %2, align 8
  br label %56

42:                                               ; preds = %34
  %43 = load i64, ptr @iseq_type_id.id_class, align 8, !tbaa !17
  store i64 %43, ptr %2, align 8
  br label %56

44:                                               ; preds = %34
  %45 = load i64, ptr @iseq_type_id.id_rescue, align 8, !tbaa !17
  store i64 %45, ptr %2, align 8
  br label %56

46:                                               ; preds = %34
  %47 = load i64, ptr @iseq_type_id.id_ensure, align 8, !tbaa !17
  store i64 %47, ptr %2, align 8
  br label %56

48:                                               ; preds = %34
  %49 = load i64, ptr @iseq_type_id.id_eval, align 8, !tbaa !17
  store i64 %49, ptr %2, align 8
  br label %56

50:                                               ; preds = %34
  %51 = load i64, ptr @iseq_type_id.id_main, align 8, !tbaa !17
  store i64 %51, ptr %2, align 8
  br label %56

52:                                               ; preds = %34
  %53 = load i64, ptr @iseq_type_id.id_plain, align 8, !tbaa !17
  store i64 %53, ptr %2, align 8
  br label %56

54:                                               ; preds = %34
  %55 = load i32, ptr %3, align 4, !tbaa !56
  call void (ptr, ...) @rb_bug(ptr noundef @.str.200, i32 noundef %55) #30
  unreachable

56:                                               ; preds = %52, %50, %48, %46, %44, %42, %40, %38, %36
  %57 = load i64, ptr %2, align 8
  ret i64 %57
}