; Function Attrs: nounwind sspstrong uwtable
define internal fastcc i64 @iseq_type_id(i32 noundef %0) unnamed_addr #0 {
  %2 = load i64, ptr @iseq_type_id.id_top, align 8, !tbaa !42
  %3 = icmp eq i64 %2, 0
  br i1 %3, label %4, label %14

4:                                                ; preds = %1
  %.pr.i = load i64, ptr @iseq_type_id.rbimpl_id, align 8, !tbaa !42
  %.not4.i = icmp eq i64 %.pr.i, 0
  br i1 %.not4.i, label %.lr.ph.i, label %rbimpl_intern_const.exit

.lr.ph.i:                                         ; preds = %4, %.lr.ph.i
  %5 = tail call i64 @rb_intern2(ptr noundef nonnull @.str.121, i64 noundef 3) #20
  store i64 %5, ptr @iseq_type_id.rbimpl_id, align 8, !tbaa !42
  %.not.i = icmp eq i64 %5, 0
  br i1 %.not.i, label %.lr.ph.i, label %rbimpl_intern_const.exit, !llvm.loop !243

rbimpl_intern_const.exit:                         ; preds = %.lr.ph.i, %4
  %.lcssa.i = phi i64 [ %.pr.i, %4 ], [ %5, %.lr.ph.i ]
  store i64 %.lcssa.i, ptr @iseq_type_id.id_top, align 8, !tbaa !42
  %.pr.i12 = load i64, ptr @iseq_type_id.rbimpl_id.192, align 8, !tbaa !42
  %.not4.i13 = icmp eq i64 %.pr.i12, 0
  br i1 %.not4.i13, label %.lr.ph.i15, label %rbimpl_intern_const.exit17

.lr.ph.i15:                                       ; preds = %rbimpl_intern_const.exit, %.lr.ph.i15
  %6 = tail call i64 @rb_intern2(ptr noundef nonnull @.str.123, i64 noundef 6) #20
  store i64 %6, ptr @iseq_type_id.rbimpl_id.192, align 8, !tbaa !42
  %.not.i16 = icmp eq i64 %6, 0
  br i1 %.not.i16, label %.lr.ph.i15, label %rbimpl_intern_const.exit17, !llvm.loop !243

rbimpl_intern_const.exit17:                       ; preds = %.lr.ph.i15, %rbimpl_intern_const.exit
  %.lcssa.i14 = phi i64 [ %.pr.i12, %rbimpl_intern_const.exit ], [ %6, %.lr.ph.i15 ]
  store i64 %.lcssa.i14, ptr @iseq_type_id.id_method, align 8, !tbaa !42
  %.pr.i18 = load i64, ptr @iseq_type_id.rbimpl_id.193, align 8, !tbaa !42
  %.not4.i19 = icmp eq i64 %.pr.i18, 0
  br i1 %.not4.i19, label %.lr.ph.i21, label %rbimpl_intern_const.exit23

.lr.ph.i21:                                       ; preds = %rbimpl_intern_const.exit17, %.lr.ph.i21
  %7 = tail call i64 @rb_intern2(ptr noundef nonnull @.str.66, i64 noundef 5) #20
  store i64 %7, ptr @iseq_type_id.rbimpl_id.193, align 8, !tbaa !42
  %.not.i22 = icmp eq i64 %7, 0
  br i1 %.not.i22, label %.lr.ph.i21, label %rbimpl_intern_const.exit23, !llvm.loop !243

rbimpl_intern_const.exit23:                       ; preds = %.lr.ph.i21, %rbimpl_intern_const.exit17
  %.lcssa.i20 = phi i64 [ %.pr.i18, %rbimpl_intern_const.exit17 ], [ %7, %.lr.ph.i21 ]
  store i64 %.lcssa.i20, ptr @iseq_type_id.id_block, align 8, !tbaa !42
  %.pr.i24 = load i64, ptr @iseq_type_id.rbimpl_id.194, align 8, !tbaa !42
  %.not4.i25 = icmp eq i64 %.pr.i24, 0
  br i1 %.not4.i25, label %.lr.ph.i27, label %rbimpl_intern_const.exit29

.lr.ph.i27:                                       ; preds = %rbimpl_intern_const.exit23, %.lr.ph.i27
  %8 = tail call i64 @rb_intern2(ptr noundef nonnull @.str.126, i64 noundef 5) #20
  store i64 %8, ptr @iseq_type_id.rbimpl_id.194, align 8, !tbaa !42
  %.not.i28 = icmp eq i64 %8, 0
  br i1 %.not.i28, label %.lr.ph.i27, label %rbimpl_intern_const.exit29, !llvm.loop !243

rbimpl_intern_const.exit29:                       ; preds = %.lr.ph.i27, %rbimpl_intern_const.exit23
  %.lcssa.i26 = phi i64 [ %.pr.i24, %rbimpl_intern_const.exit23 ], [ %8, %.lr.ph.i27 ]
  store i64 %.lcssa.i26, ptr @iseq_type_id.id_class, align 8, !tbaa !42
  %.pr.i30 = load i64, ptr @iseq_type_id.rbimpl_id.195, align 8, !tbaa !42
  %.not4.i31 = icmp eq i64 %.pr.i30, 0
  br i1 %.not4.i31, label %.lr.ph.i33, label %rbimpl_intern_const.exit35

.lr.ph.i33:                                       ; preds = %rbimpl_intern_const.exit29, %.lr.ph.i33
  %9 = tail call i64 @rb_intern2(ptr noundef nonnull @.str.128, i64 noundef 6) #20
  store i64 %9, ptr @iseq_type_id.rbimpl_id.195, align 8, !tbaa !42
  %.not.i34 = icmp eq i64 %9, 0
  br i1 %.not.i34, label %.lr.ph.i33, label %rbimpl_intern_const.exit35, !llvm.loop !243

rbimpl_intern_const.exit35:                       ; preds = %.lr.ph.i33, %rbimpl_intern_const.exit29
  %.lcssa.i32 = phi i64 [ %.pr.i30, %rbimpl_intern_const.exit29 ], [ %9, %.lr.ph.i33 ]
  store i64 %.lcssa.i32, ptr @iseq_type_id.id_rescue, align 8, !tbaa !42
  %.pr.i36 = load i64, ptr @iseq_type_id.rbimpl_id.196, align 8, !tbaa !42
  %.not4.i37 = icmp eq i64 %.pr.i36, 0
  br i1 %.not4.i37, label %.lr.ph.i39, label %rbimpl_intern_const.exit41

.lr.ph.i39:                                       ; preds = %rbimpl_intern_const.exit35, %.lr.ph.i39
  %10 = tail call i64 @rb_intern2(ptr noundef nonnull @.str.130, i64 noundef 6) #20
  store i64 %10, ptr @iseq_type_id.rbimpl_id.196, align 8, !tbaa !42
  %.not.i40 = icmp eq i64 %10, 0
  br i1 %.not.i40, label %.lr.ph.i39, label %rbimpl_intern_const.exit41, !llvm.loop !243

rbimpl_intern_const.exit41:                       ; preds = %.lr.ph.i39, %rbimpl_intern_const.exit35
  %.lcssa.i38 = phi i64 [ %.pr.i36, %rbimpl_intern_const.exit35 ], [ %10, %.lr.ph.i39 ]
  store i64 %.lcssa.i38, ptr @iseq_type_id.id_ensure, align 8, !tbaa !42
  %.pr.i42 = load i64, ptr @iseq_type_id.rbimpl_id.197, align 8, !tbaa !42
  %.not4.i43 = icmp eq i64 %.pr.i42, 0
  br i1 %.not4.i43, label %.lr.ph.i45, label %rbimpl_intern_const.exit47

.lr.ph.i45:                                       ; preds = %rbimpl_intern_const.exit41, %.lr.ph.i45
  %11 = tail call i64 @rb_intern2(ptr noundef nonnull @.str.84, i64 noundef 4) #20
  store i64 %11, ptr @iseq_type_id.rbimpl_id.197, align 8, !tbaa !42
  %.not.i46 = icmp eq i64 %11, 0
  br i1 %.not.i46, label %.lr.ph.i45, label %rbimpl_intern_const.exit47, !llvm.loop !243

rbimpl_intern_const.exit47:                       ; preds = %.lr.ph.i45, %rbimpl_intern_const.exit41
  %.lcssa.i44 = phi i64 [ %.pr.i42, %rbimpl_intern_const.exit41 ], [ %11, %.lr.ph.i45 ]
  store i64 %.lcssa.i44, ptr @iseq_type_id.id_eval, align 8, !tbaa !42
  %.pr.i48 = load i64, ptr @iseq_type_id.rbimpl_id.198, align 8, !tbaa !42
  %.not4.i49 = icmp eq i64 %.pr.i48, 0
  br i1 %.not4.i49, label %.lr.ph.i51, label %rbimpl_intern_const.exit53

.lr.ph.i51:                                       ; preds = %rbimpl_intern_const.exit47, %.lr.ph.i51
  %12 = tail call i64 @rb_intern2(ptr noundef nonnull @.str.133, i64 noundef 4) #20
  store i64 %12, ptr @iseq_type_id.rbimpl_id.198, align 8, !tbaa !42
  %.not.i52 = icmp eq i64 %12, 0
  br i1 %.not.i52, label %.lr.ph.i51, label %rbimpl_intern_const.exit53, !llvm.loop !243

rbimpl_intern_const.exit53:                       ; preds = %.lr.ph.i51, %rbimpl_intern_const.exit47
  %.lcssa.i50 = phi i64 [ %.pr.i48, %rbimpl_intern_const.exit47 ], [ %12, %.lr.ph.i51 ]
  store i64 %.lcssa.i50, ptr @iseq_type_id.id_main, align 8, !tbaa !42
  %.pr.i54 = load i64, ptr @iseq_type_id.rbimpl_id.199, align 8, !tbaa !42
  %.not4.i55 = icmp eq i64 %.pr.i54, 0
  br i1 %.not4.i55, label %.lr.ph.i57, label %rbimpl_intern_const.exit59

.lr.ph.i57:                                       ; preds = %rbimpl_intern_const.exit53, %.lr.ph.i57
  %13 = tail call i64 @rb_intern2(ptr noundef nonnull @.str.135, i64 noundef 5) #20
  store i64 %13, ptr @iseq_type_id.rbimpl_id.199, align 8, !tbaa !42
  %.not.i58 = icmp eq i64 %13, 0
  br i1 %.not.i58, label %.lr.ph.i57, label %rbimpl_intern_const.exit59, !llvm.loop !243

rbimpl_intern_const.exit59:                       ; preds = %.lr.ph.i57, %rbimpl_intern_const.exit53
  %.lcssa.i56 = phi i64 [ %.pr.i54, %rbimpl_intern_const.exit53 ], [ %13, %.lr.ph.i57 ]
  store i64 %.lcssa.i56, ptr @iseq_type_id.id_plain, align 8, !tbaa !42
  br label %14

14:                                               ; preds = %rbimpl_intern_const.exit59, %1
  %15 = icmp ult i32 %0, 9
  br i1 %15, label %switch.lookup, label %16

16:                                               ; preds = %14
  tail call void (ptr, ...) @rb_bug(ptr noundef nonnull @.str.200, i32 noundef %0) #23
  unreachable

switch.lookup:                                    ; preds = %14
  %17 = zext nneg i32 %0 to i64
  %switch.gep = getelementptr inbounds nuw [9 x ptr], ptr @switch.table.iseq_type_id, i64 0, i64 %17
  %switch.load = load ptr, ptr %switch.gep, align 8
  %.0 = load i64, ptr %switch.load, align 8, !tbaa !42
  ret i64 %.0
}